target datalayout = "e-m:e-p270:32:32-p271:32:32-p272:64:64-i64:64-i128:128-f80:128-n8:16:32:64-S128"
target triple = "x86_64-pc-linux-gnu"

%struct.display_data = type { i64, i32, ptr, i8, i32, ptr, ptr, ptr, ptr, ptr, ptr, ptr, ptr }
%struct._GdkEventButton = type { i32, ptr, i8, i32, double, double, ptr, i32, i32, ptr, double, double }

@.str.42 = private unnamed_addr constant [9 x i8] c"activate\00", align 1

; Function Attrs: nounwind uwtable
define dso_local void @admin_menu_node_name(ptr noundef %0, ptr noundef %1) #0 {
  %3 = alloca ptr, align 8
  %4 = alloca ptr, align 8
  %5 = alloca ptr, align 8
  %6 = alloca ptr, align 8
  %7 = alloca ptr, align 8
  store ptr %0, ptr %3, align 8
  store ptr %1, ptr %4, align 8
  call void @llvm.lifetime.start.p0(i64 8, ptr %5) #7
  %8 = call ptr @gtk_menu_new()
  %9 = call i64 @gtk_menu_get_type() #8
  %10 = call ptr @g_type_check_instance_cast(ptr noundef %8, i64 noundef %9)
  store ptr %10, ptr %5, align 8
  call void @llvm.lifetime.start.p0(i64 8, ptr %6) #7
  store ptr @options_data_node, ptr %6, align 8
  call void @llvm.lifetime.start.p0(i64 8, ptr %7) #7
  br label %11

11:                                               ; preds = %27, %26, %2
  %12 = load ptr, ptr %6, align 8
  %13 = getelementptr inbounds nuw %struct.display_data, ptr %12, i32 1
  store ptr %13, ptr %6, align 8
  %14 = icmp ne ptr %12, null
  br i1 %14, label %15, label %42

15:                                               ; preds = %11
  %16 = load ptr, ptr %6, align 8
  %17 = getelementptr inbounds nuw %struct.display_data, ptr %16, i32 0, i32 1
  %18 = load i32, ptr %17, align 8
  %19 = icmp eq i32 %18, -1
  br i1 %19, label %20, label %21

20:                                               ; preds = %15
  br label %42

21:                                               ; preds = %15
  %22 = load ptr, ptr %6, align 8
  %23 = getelementptr inbounds nuw %struct.display_data, ptr %22, i32 0, i32 2
  %24 = load ptr, ptr %23, align 8
  %25 = icmp ne ptr %24, null
  br i1 %25, label %27, label %26

26:                                               ; preds = %21
  br label %11, !llvm.loop !25

27:                                               ; preds = %21
  %28 = load ptr, ptr %3, align 8
  %29 = load ptr, ptr %6, align 8
  %30 = getelementptr inbounds nuw %struct.display_data, ptr %29, i32 0, i32 11
  store ptr %28, ptr %30, align 8
  %31 = load ptr, ptr %6, align 8
  %32 = getelementptr inbounds nuw %struct.display_data, ptr %31, i32 0, i32 2
  %33 = load ptr, ptr %32, align 8
  %34 = call ptr @gtk_menu_item_new_with_label(ptr noundef %33)
  store ptr %34, ptr %7, align 8
  %35 = load ptr, ptr %7, align 8
  %36 = load ptr, ptr %6, align 8
  %37 = call i64 @g_signal_connect_data(ptr noundef %35, ptr noundef @.str.42, ptr noundef @_selected_page, ptr noundef %36, ptr noundef null, i32 noundef 0)
  %38 = load ptr, ptr %5, align 8
  %39 = call i64 @gtk_menu_shell_get_type() #8
  %40 = call ptr @g_type_check_instance_cast(ptr noundef %38, i64 noundef %39)
  %41 = load ptr, ptr %7, align 8
  call void @gtk_menu_shell_append(ptr noundef %40, ptr noundef %41)
  br label %11, !llvm.loop !25

42:                                               ; preds = %20, %11
  %43 = load ptr, ptr %5, align 8
  %44 = call i64 @gtk_widget_get_type() #8
  %45 = call ptr @g_type_check_instance_cast(ptr noundef %43, i64 noundef %44)
  call void @gtk_widget_show_all(ptr noundef %45)
  %46 = load ptr, ptr %5, align 8
  %47 = load ptr, ptr %4, align 8
  %48 = icmp ne ptr %47, null
  br i1 %48, label %49, label %53

49:                                               ; preds = %42
  %50 = load ptr, ptr %4, align 8
  %51 = getelementptr inbounds nuw %struct._GdkEventButton, ptr %50, i32 0, i32 8
  %52 = load i32, ptr %51, align 4
  br label %54

53:                                               ; preds = %42
  br label %54

54:                                               ; preds = %53, %49
  %55 = phi i32 [ %52, %49 ], [ 0, %53 ]
  %56 = load ptr, ptr %4, align 8
  %57 = call i32 @gdk_event_get_time(ptr noundef %56)
  call void @gtk_menu_popup(ptr noundef %46, ptr noundef null, ptr noundef null, ptr noundef null, ptr noundef null, i32 noundef %55, i32 noundef %57)
  call void @llvm.lifetime.end.p0(i64 8, ptr %7) #7
  call void @llvm.lifetime.end.p0(i64 8, ptr %6) #7
  call void @llvm.lifetime.end.p0(i64 8, ptr %5) #7
  ret void
}