; Function Attrs: nounwind uwtable
define dso_local void @admin_menu_node_name(ptr noundef %0, ptr noundef %1) local_unnamed_addr #0 {
  %3 = tail call ptr @gtk_menu_new() #11
  %4 = tail call i64 @gtk_menu_get_type() #12
  %5 = tail call ptr @g_type_check_instance_cast(ptr noundef %3, i64 noundef %4) #11
  %6 = load i32, ptr getelementptr inbounds nuw (i8, ptr @options_data_node, i64 104), align 8
  %7 = icmp eq i32 %6, -1
  br i1 %7, label %._crit_edge, label %.lr.ph

.lr.ph:                                           ; preds = %2, %.backedge
  %8 = phi ptr [ %17, %.backedge ], [ getelementptr inbounds nuw (i8, ptr @options_data_node, i64 96), %2 ]
  %.017 = phi ptr [ %8, %.backedge ], [ @options_data_node, %2 ]
  %9 = getelementptr inbounds nuw i8, ptr %.017, i64 112
  %10 = load ptr, ptr %9, align 8
  %.not = icmp eq ptr %10, null
  br i1 %.not, label %.backedge, label %11

11:                                               ; preds = %.lr.ph
  %12 = getelementptr inbounds nuw i8, ptr %.017, i64 176
  store ptr %0, ptr %12, align 8
  %13 = tail call ptr @gtk_menu_item_new_with_label(ptr noundef nonnull %10) #11
  %14 = tail call i64 @g_signal_connect_data(ptr noundef %13, ptr noundef nonnull @.str.42, ptr noundef nonnull @_selected_page, ptr noundef nonnull %8, ptr noundef null, i32 noundef 0) #11
  %15 = tail call i64 @gtk_menu_shell_get_type() #12
  %16 = tail call ptr @g_type_check_instance_cast(ptr noundef %5, i64 noundef %15) #11
  tail call void @gtk_menu_shell_append(ptr noundef %16, ptr noundef %13) #11
  br label %.backedge

.backedge:                                        ; preds = %11, %.lr.ph
  %17 = getelementptr inbounds nuw i8, ptr %8, i64 96
  %18 = getelementptr inbounds nuw i8, ptr %8, i64 104
  %19 = load i32, ptr %18, align 8
  %20 = icmp eq i32 %19, -1
  br i1 %20, label %._crit_edge, label %.lr.ph, !llvm.loop !25

._crit_edge:                                      ; preds = %.backedge, %2
  %21 = tail call i64 @gtk_widget_get_type() #12
  %22 = tail call ptr @g_type_check_instance_cast(ptr noundef %5, i64 noundef %21) #11
  tail call void @gtk_widget_show_all(ptr noundef %22) #11
  %.not16 = icmp eq ptr %1, null
  br i1 %.not16, label %26, label %23

23:                                               ; preds = %._crit_edge
  %24 = getelementptr inbounds nuw i8, ptr %1, i64 52
  %25 = load i32, ptr %24, align 4
  br label %26

26:                                               ; preds = %._crit_edge, %23
  %27 = phi i32 [ %25, %23 ], [ 0, %._crit_edge ]
  %28 = tail call i32 @gdk_event_get_time(ptr noundef %1) #11
  tail call void @gtk_menu_popup(ptr noundef %5, ptr noundef null, ptr noundef null, ptr noundef null, ptr noundef null, i32 noundef %27, i32 noundef %28) #11
  ret void
}